; Function Attrs: null_pointer_is_valid sspstrong uwtable
define internal fastcc void @dissect_timing_test_response(ptr noundef %0, ptr noundef %1) unnamed_addr #0 {
  %3 = load i32, ptr @hf_msmms_command_prefix1_error, align 4
  %4 = tail call ptr @proto_tree_add_item(ptr noundef %1, i32 noundef %3, ptr noundef %0, i32 noundef 40, i32 noundef 4, i32 noundef -2147483648)
  %5 = load i32, ptr @hf_msmms_command_prefix2, align 4
  %6 = tail call ptr @proto_tree_add_item(ptr noundef %1, i32 noundef %5, ptr noundef %0, i32 noundef 44, i32 noundef 4, i32 noundef -2147483648)
  %7 = load i32, ptr @hf_msmms_command_number_of_words, align 4
  %8 = tail call ptr @proto_tree_add_item(ptr noundef %1, i32 noundef %7, ptr noundef %0, i32 noundef 48, i32 noundef 4, i32 noundef -2147483648)
  %9 = load i32, ptr @hf_msmms_command_client_id, align 4
  %10 = tail call ptr @proto_tree_add_item(ptr noundef %1, i32 noundef %9, ptr noundef %0, i32 noundef 60, i32 noundef 4, i32 noundef -2147483648)
  ret void
}